; Function Attrs: mustprogress nofree norecurse nosync nounwind willreturn memory(read, inaccessiblemem: none) uwtable
define dso_local ptr @source_file_by_id(i16 noundef zeroext %0) local_unnamed_addr #0 {
  %2 = icmp eq i16 %0, -1
  br i1 %2, label %8, label %3

3:                                                ; preds = %1
  %4 = load ptr, ptr getelementptr inbounds (%struct.GlobalContext, ptr @global_context, i64 0, i32 8), align 8
  %5 = zext i16 %0 to i64
  %6 = getelementptr inbounds ptr, ptr %4, i64 %5
  %7 = load ptr, ptr %6, align 8
  br label %8

8:                                                ; preds = %1, %3
  %.0 = phi ptr [ %7, %3 ], [ @stdin_file, %1 ]
  ret ptr %.0
}